; Function Attrs: nounwind uwtable
define dso_local ptr @connectDatabase(ptr noundef readonly captures(none) %0, ptr noundef %1, i1 noundef zeroext %2, i1 noundef zeroext %3, i1 noundef zeroext %4) local_unnamed_addr #0 {
  %6 = alloca [8 x ptr], align 16
  %7 = alloca [8 x ptr], align 16
  %8 = load ptr, ptr @connectDatabase.password, align 8
  %9 = icmp eq ptr %8, null
  %or.cond.not = select i1 %4, i1 true, i1 %9
  br i1 %or.cond.not, label %11, label %10

10:                                               ; preds = %5
  tail call void @free(ptr noundef nonnull %8) #5
  store ptr null, ptr @connectDatabase.password, align 8
  br label %11

11:                                               ; preds = %10, %5
  %12 = phi ptr [ null, %10 ], [ %8, %5 ]
  %13 = getelementptr inbounds nuw i8, ptr %0, i64 32
  %14 = load i32, ptr %13, align 8
  %15 = icmp eq i32 %14, 2
  %16 = icmp eq ptr %12, null
  %or.cond3 = select i1 %15, i1 %16, i1 false
  br i1 %or.cond3, label %17, label %19

17:                                               ; preds = %11
  %18 = tail call ptr @simple_prompt(ptr noundef nonnull @.str, i1 noundef zeroext false) #5
  store ptr %18, ptr @connectDatabase.password, align 8
  br label %19

19:                                               ; preds = %17, %11
  %20 = phi ptr [ %18, %17 ], [ %12, %11 ]
  %21 = getelementptr inbounds nuw i8, ptr %0, i64 8
  %22 = getelementptr inbounds nuw i8, ptr %6, i64 8
  %23 = getelementptr inbounds nuw i8, ptr %0, i64 16
  %24 = getelementptr inbounds nuw i8, ptr %7, i64 8
  %25 = getelementptr inbounds nuw i8, ptr %6, i64 16
  %26 = getelementptr inbounds nuw i8, ptr %0, i64 24
  %27 = getelementptr inbounds nuw i8, ptr %7, i64 16
  %28 = getelementptr inbounds nuw i8, ptr %6, i64 24
  %29 = getelementptr inbounds nuw i8, ptr %7, i64 24
  %30 = getelementptr inbounds nuw i8, ptr %6, i64 32
  %31 = getelementptr inbounds nuw i8, ptr %7, i64 32
  %32 = getelementptr inbounds nuw i8, ptr %0, i64 40
  %33 = getelementptr inbounds nuw i8, ptr %6, i64 40
  %34 = getelementptr inbounds nuw i8, ptr %7, i64 40
  br label %35

35:                                               ; preds = %.critedge, %19
  %36 = phi ptr [ %62, %.critedge ], [ %20, %19 ]
  call void @llvm.lifetime.start.p0(i64 64, ptr nonnull %6) #5
  call void @llvm.lifetime.start.p0(i64 64, ptr nonnull %7) #5
  store ptr @.str.1, ptr %6, align 16
  %37 = load ptr, ptr %21, align 8
  store ptr %37, ptr %7, align 16
  store ptr @.str.2, ptr %22, align 8
  %38 = load ptr, ptr %23, align 8
  store ptr %38, ptr %24, align 8
  store ptr @.str.3, ptr %25, align 16
  %39 = load ptr, ptr %26, align 8
  store ptr %39, ptr %27, align 16
  store ptr @.str.4, ptr %28, align 8
  store ptr %36, ptr %29, align 8
  store ptr @.str.5, ptr %30, align 16
  %40 = load ptr, ptr %0, align 8
  store ptr %40, ptr %31, align 16
  %41 = load ptr, ptr %32, align 8
  %.not = icmp eq ptr %41, null
  br i1 %.not, label %43, label %42

42:                                               ; preds = %35
  store ptr @.str.5, ptr %33, align 8
  store ptr %41, ptr %34, align 8
  br label %43

43:                                               ; preds = %42, %35
  %.0 = phi i32 [ 6, %42 ], [ 5, %35 ]
  %44 = zext nneg i32 %.0 to i64
  %45 = getelementptr inbounds nuw [8 x ptr], ptr %6, i64 0, i64 %44
  store ptr @.str.6, ptr %45, align 8
  %46 = add nuw nsw i32 %.0, 1
  %47 = getelementptr inbounds nuw [8 x ptr], ptr %7, i64 0, i64 %44
  store ptr %1, ptr %47, align 8
  %48 = zext nneg i32 %46 to i64
  %49 = getelementptr inbounds nuw [8 x ptr], ptr %6, i64 0, i64 %48
  store ptr null, ptr %49, align 8
  %50 = getelementptr inbounds nuw [8 x ptr], ptr %7, i64 0, i64 %48
  store ptr null, ptr %50, align 8
  %51 = call ptr @PQconnectdbParams(ptr noundef nonnull %6, ptr noundef nonnull %7, i32 noundef 1) #5
  %.not47 = icmp eq ptr %51, null
  br i1 %.not47, label %52, label %54

52:                                               ; preds = %43
  %53 = load ptr, ptr %0, align 8
  call void (i32, i32, ptr, ...) @pg_log_generic(i32 noundef 4, i32 noundef 0, ptr noundef nonnull @.str.7, ptr noundef %53) #5
  call void @exit(i32 noundef 1) #6
  unreachable

54:                                               ; preds = %43
  %55 = call i32 @PQstatus(ptr noundef nonnull %51) #5
  %56 = icmp eq i32 %55, 1
  br i1 %56, label %57, label %63

57:                                               ; preds = %54
  %58 = call i32 @PQconnectionNeedsPassword(ptr noundef nonnull %51) #5
  %.not48 = icmp eq i32 %58, 0
  br i1 %.not48, label %63, label %59

59:                                               ; preds = %57
  %60 = load i32, ptr %13, align 8
  %.not49 = icmp eq i32 %60, 1
  br i1 %.not49, label %63, label %.critedge

.critedge:                                        ; preds = %59
  call void @PQfinish(ptr noundef nonnull %51) #5
  %61 = load ptr, ptr @connectDatabase.password, align 8
  call void @free(ptr noundef %61) #5
  %62 = call ptr @simple_prompt(ptr noundef nonnull @.str, i1 noundef zeroext false) #5
  store ptr %62, ptr @connectDatabase.password, align 8
  call void @llvm.lifetime.end.p0(i64 64, ptr nonnull %7) #5
  call void @llvm.lifetime.end.p0(i64 64, ptr nonnull %6) #5
  br label %35

63:                                               ; preds = %59, %57, %54
  call void @llvm.lifetime.end.p0(i64 64, ptr nonnull %7) #5
  call void @llvm.lifetime.end.p0(i64 64, ptr nonnull %6) #5
  %64 = call i32 @PQstatus(ptr noundef nonnull %51) #5
  %65 = icmp eq i32 %64, 1
  br i1 %65, label %66, label %70

66:                                               ; preds = %63
  br i1 %3, label %67, label %68

67:                                               ; preds = %66
  call void @PQfinish(ptr noundef nonnull %51) #5
  br label %72

68:                                               ; preds = %66
  %69 = call ptr @PQerrorMessage(ptr noundef nonnull %51) #5
  call void (i32, i32, ptr, ...) @pg_log_generic(i32 noundef 4, i32 noundef 0, ptr noundef nonnull @.str.8, ptr noundef %69) #5
  call void @exit(i32 noundef 1) #6
  unreachable

70:                                               ; preds = %63
  %71 = call ptr @executeQuery(ptr noundef nonnull %51, ptr noundef nonnull @.str.9, i1 noundef zeroext %2) #5
  call void @PQclear(ptr noundef %71) #5
  br label %72

72:                                               ; preds = %70, %67
  %.043 = phi ptr [ null, %67 ], [ %51, %70 ]
  ret ptr %.043
}